; Function Attrs: mustprogress uwtable
define void @_ZN7Imf_3_214RgbaOutputFile11writePixelsEi(ptr nocapture noundef nonnull readonly align 8 dereferenceable(24) %this, i32 noundef %numScanLines) local_unnamed_addr #3 align 2 personality ptr @__gxx_personality_v0 {
entry:
  %_toYca = getelementptr inbounds i8, ptr %this, i64 16
  %0 = load ptr, ptr %_toYca, align 8
  %tobool.not = icmp eq ptr %0, null
  br i1 %tobool.not, label %if.else, label %if.then

if.then:                                          ; preds = %entry
  %call1.i.i.i = tail call noundef i32 @pthread_mutex_lock(ptr noundef nonnull %0) #25
  %tobool.not.i.i = icmp eq i32 %call1.i.i.i, 0
  br i1 %tobool.not.i.i, label %_ZNSt10lock_guardISt5mutexEC2ERS0_.exit, label %if.then.i.i

if.then.i.i:                                      ; preds = %if.then
  tail call void @_ZSt20__throw_system_errori(i32 noundef %call1.i.i.i) #27
  unreachable

_ZNSt10lock_guardISt5mutexEC2ERS0_.exit:          ; preds = %if.then
  %1 = load ptr, ptr %_toYca, align 8
  invoke void @_ZN7Imf_3_214RgbaOutputFile5ToYca11writePixelsEi(ptr noundef nonnull align 8 dereferenceable(352) %1, i32 noundef %numScanLines)
          to label %invoke.cont unwind label %lpad

invoke.cont:                                      ; preds = %_ZNSt10lock_guardISt5mutexEC2ERS0_.exit
  %call1.i.i.i2 = tail call noundef i32 @pthread_mutex_unlock(ptr noundef nonnull %0) #25
  br label %if.end

lpad:                                             ; preds = %_ZNSt10lock_guardISt5mutexEC2ERS0_.exit
  %2 = landingpad { ptr, i32 }
          cleanup
  %call1.i.i.i3 = tail call noundef i32 @pthread_mutex_unlock(ptr noundef nonnull %0) #25
  resume { ptr, i32 } %2

if.else:                                          ; preds = %entry
  %_outputFile = getelementptr inbounds i8, ptr %this, i64 8
  %3 = load ptr, ptr %_outputFile, align 8
  tail call void @_ZN7Imf_3_210OutputFile11writePixelsEi(ptr noundef nonnull align 8 dereferenceable(16) %3, i32 noundef %numScanLines)
  br label %if.end

if.end:                                           ; preds = %if.else, %invoke.cont
  ret void
}